target datalayout = "e-m:e-p270:32:32-p271:32:32-p272:64:64-i64:64-i128:128-f80:128-n8:16:32:64-S128"
target triple = "x86_64-unknown-linux-gnu"

%struct._DBusDisplayConsole = type { %struct._GDBusObjectSkeleton, %struct.DisplayChangeListener, ptr, ptr, ptr, ptr, ptr, ptr, ptr, i32, i32, i32, %struct.Notifier }
%struct._GDBusObjectSkeleton = type { %struct._GObject, ptr }
%struct._GObject = type { %struct._GTypeInstance, i32, ptr }
%struct._GTypeInstance = type { ptr }
%struct.DisplayChangeListener = type { i64, ptr, ptr, ptr, %struct.anon }
%struct.anon = type { ptr, ptr }
%struct.Notifier = type { ptr, %struct.anon.0 }
%struct.anon.0 = type { ptr, ptr }
%struct._GError = type { i32, i32, ptr }
%struct.timeval = type { i64, i64 }

@.str.26 = private unnamed_addr constant [28 x i8] c"`%s` is already registered!\00", align 1
@.str.27 = private unnamed_addr constant [25 x i8] c"Couldn't get peer fd: %s\00", align 1
@.str.28 = private unnamed_addr constant [27 x i8] c"Couldn't make a socket: %s\00", align 1
@.str.29 = private unnamed_addr constant [36 x i8] c"Failed to setup peer connection: %s\00", align 1
@.str.30 = private unnamed_addr constant [23 x i8] c"swapped-signal::closed\00", align 1
@trace_events_enabled_count = external global i32, align 4
@message_with_timestamp = external global i8, align 1
@qemu_loglevel = external global i32, align 4
@_TRACE_DBUS_REGISTERED_LISTENER_DSTATE = external global i16, align 2
@.str.33 = private unnamed_addr constant [47 x i8] c"%d@%zu.%06zu:dbus_registered_listener peer %s\0A\00", align 1
@.str.34 = private unnamed_addr constant [34 x i8] c"dbus_registered_listener peer %s\0A\00", align 1

; Function Attrs: nounwind sspstrong uwtable
define internal zeroext i1 @qemu_loglevel_mask(i32 noundef %mask) #0 {
entry:
  %mask.addr = alloca i32, align 4
  store i32 %mask, ptr %mask.addr, align 4
  %0 = load i32, ptr @qemu_loglevel, align 4
  %1 = load i32, ptr %mask.addr, align 4
  %and = and i32 %0, %1
  %cmp = icmp ne i32 %and, 0
  ret i1 %cmp
}

; Function Attrs: nounwind sspstrong uwtable
define internal void @glib_autoptr_clear_GError(ptr noundef %_ptr) #0 {
entry:
  %_ptr.addr = alloca ptr, align 8
  store ptr %_ptr, ptr %_ptr.addr, align 8
  %0 = load ptr, ptr %_ptr.addr, align 8
  %tobool = icmp ne ptr %0, null
  br i1 %tobool, label %if.then, label %if.end

if.then:                                          ; preds = %entry
  %1 = load ptr, ptr %_ptr.addr, align 8
  call void @g_error_free(ptr noundef %1)
  br label %if.end

if.end:                                           ; preds = %if.then, %entry
  ret void
}

; Function Attrs: nounwind sspstrong uwtable
define internal void @glib_autoptr_clear_GSocket(ptr noundef %_ptr) #0 {
entry:
  %_ptr.addr = alloca ptr, align 8
  store ptr %_ptr, ptr %_ptr.addr, align 8
  %0 = load ptr, ptr %_ptr.addr, align 8
  %tobool = icmp ne ptr %0, null
  br i1 %tobool, label %if.then, label %if.end

if.then:                                          ; preds = %entry
  %1 = load ptr, ptr %_ptr.addr, align 8
  call void @g_object_unref(ptr noundef %1)
  br label %if.end

if.end:                                           ; preds = %if.then, %entry
  ret void
}

; Function Attrs: nounwind sspstrong uwtable
define internal void @glib_autoptr_clear_GSocketConnection(ptr noundef %_ptr) #0 {
entry:
  %_ptr.addr = alloca ptr, align 8
  store ptr %_ptr, ptr %_ptr.addr, align 8
  %0 = load ptr, ptr %_ptr.addr, align 8
  %tobool = icmp ne ptr %0, null
  br i1 %tobool, label %if.then, label %if.end

if.then:                                          ; preds = %entry
  %1 = load ptr, ptr %_ptr.addr, align 8
  call void @g_object_unref(ptr noundef %1)
  br label %if.end

if.end:                                           ; preds = %if.then, %entry
  ret void
}

; Function Attrs: nounwind sspstrong uwtable
define internal void @_nocheck__trace_dbus_registered_listener(ptr noundef %bus_name) #0 {
entry:
  %bus_name.addr = alloca ptr, align 8
  %_now = alloca %struct.timeval, align 8
  store ptr %bus_name, ptr %bus_name.addr, align 8
  %0 = load i32, ptr @trace_events_enabled_count, align 4
  %tobool = icmp ne i32 %0, 0
  %lnot = xor i1 %tobool, true
  %lnot1 = xor i1 %lnot, true
  %lnot.ext = zext i1 %lnot1 to i32
  %conv = sext i32 %lnot.ext to i64
  %tobool2 = icmp ne i64 %conv, 0
  br i1 %tobool2, label %land.lhs.true, label %if.end11

land.lhs.true:                                    ; preds = %entry
  %1 = load i16, ptr @_TRACE_DBUS_REGISTERED_LISTENER_DSTATE, align 2
  %conv3 = zext i16 %1 to i32
  %tobool4 = icmp ne i32 %conv3, 0
  br i1 %tobool4, label %land.lhs.true5, label %if.end11

land.lhs.true5:                                   ; preds = %land.lhs.true
  %call = call zeroext i1 @qemu_loglevel_mask(i32 noundef 32768)
  br i1 %call, label %if.then, label %if.end11

if.then:                                          ; preds = %land.lhs.true5
  %2 = load i8, ptr @message_with_timestamp, align 1
  %tobool7 = trunc i8 %2 to i1
  br i1 %tobool7, label %if.then8, label %if.else

if.then8:                                         ; preds = %if.then
  %call9 = call i32 @gettimeofday(ptr noundef %_now, ptr noundef null) #9
  %call10 = call i32 @qemu_get_thread_id()
  %tv_sec = getelementptr inbounds %struct.timeval, ptr %_now, i32 0, i32 0
  %3 = load i64, ptr %tv_sec, align 8
  %tv_usec = getelementptr inbounds %struct.timeval, ptr %_now, i32 0, i32 1
  %4 = load i64, ptr %tv_usec, align 8
  %5 = load ptr, ptr %bus_name.addr, align 8
  call void (ptr, ...) @qemu_log(ptr noundef @.str.33, i32 noundef %call10, i64 noundef %3, i64 noundef %4, ptr noundef %5)
  br label %if.end

if.else:                                          ; preds = %if.then
  %6 = load ptr, ptr %bus_name.addr, align 8
  call void (ptr, ...) @qemu_log(ptr noundef @.str.34, ptr noundef %6)
  br label %if.end

if.end:                                           ; preds = %if.else, %if.then8
  br label %if.end11

if.end11:                                         ; preds = %if.end, %land.lhs.true5, %land.lhs.true, %entry
  ret void
}

; Function Attrs: nounwind sspstrong uwtable
define internal void @glib_autoptr_cleanup_GError(ptr noundef %_ptr) #0 {
entry:
  %_ptr.addr = alloca ptr, align 8
  store ptr %_ptr, ptr %_ptr.addr, align 8
  %0 = load ptr, ptr %_ptr.addr, align 8
  %1 = load ptr, ptr %0, align 8
  call void @glib_autoptr_clear_GError(ptr noundef %1)
  ret void
}

; Function Attrs: nounwind sspstrong uwtable
define internal void @glib_autoptr_cleanup_GSocket(ptr noundef %_ptr) #0 {
entry:
  %_ptr.addr = alloca ptr, align 8
  store ptr %_ptr, ptr %_ptr.addr, align 8
  %0 = load ptr, ptr %_ptr.addr, align 8
  %1 = load ptr, ptr %0, align 8
  call void @glib_autoptr_clear_GSocket(ptr noundef %1)
  ret void
}

; Function Attrs: nounwind sspstrong uwtable
define internal void @glib_autoptr_cleanup_GSocketConnection(ptr noundef %_ptr) #0 {
entry:
  %_ptr.addr = alloca ptr, align 8
  store ptr %_ptr, ptr %_ptr.addr, align 8
  %0 = load ptr, ptr %_ptr.addr, align 8
  %1 = load ptr, ptr %0, align 8
  call void @glib_autoptr_clear_GSocketConnection(ptr noundef %1)
  ret void
}

; Function Attrs: nounwind sspstrong uwtable
define internal void @g_autoptr_cleanup_generic_gfree(ptr noundef %p) #0 {
entry:
  %p.addr = alloca ptr, align 8
  %pp = alloca ptr, align 8
  store ptr %p, ptr %p.addr, align 8
  %0 = load ptr, ptr %p.addr, align 8
  store ptr %0, ptr %pp, align 8
  %1 = load ptr, ptr %pp, align 8
  %2 = load ptr, ptr %1, align 8
  call void @g_free(ptr noundef %2)
  ret void
}

; Function Attrs: nounwind sspstrong uwtable
define internal void @trace_dbus_registered_listener(ptr noundef %bus_name) #0 {
entry:
  %bus_name.addr = alloca ptr, align 8
  store ptr %bus_name, ptr %bus_name.addr, align 8
  %0 = load ptr, ptr %bus_name.addr, align 8
  call void @_nocheck__trace_dbus_registered_listener(ptr noundef %0)
  ret void
}

; Function Attrs: nounwind sspstrong uwtable
define internal i32 @dbus_console_register_listener(ptr noundef %ddc, ptr noundef %invocation, ptr noundef %fd_list, ptr noundef %arg_listener) #0 {
entry:
  %retval = alloca i32, align 4
  %ddc.addr = alloca ptr, align 8
  %invocation.addr = alloca ptr, align 8
  %fd_list.addr = alloca ptr, align 8
  %arg_listener.addr = alloca ptr, align 8
  %sender = alloca ptr, align 8
  %listener_conn = alloca ptr, align 8
  %err = alloca ptr, align 8
  %socket = alloca ptr, align 8
  %socket_conn = alloca ptr, align 8
  %guid = alloca ptr, align 8
  %listener = alloca ptr, align 8
  %fd = alloca i32, align 4
  %cleanup.dest.slot = alloca i32, align 4
  store ptr %ddc, ptr %ddc.addr, align 8
  store ptr %invocation, ptr %invocation.addr, align 8
  store ptr %fd_list, ptr %fd_list.addr, align 8
  store ptr %arg_listener, ptr %arg_listener.addr, align 8
  %0 = load ptr, ptr %invocation.addr, align 8
  %call = call ptr @g_dbus_method_invocation_get_sender(ptr noundef %0)
  store ptr %call, ptr %sender, align 8
  store ptr null, ptr %err, align 8
  store ptr null, ptr %socket, align 8
  store ptr null, ptr %socket_conn, align 8
  %call1 = call ptr @g_dbus_generate_guid()
  store ptr %call1, ptr %guid, align 8
  %1 = load ptr, ptr %sender, align 8
  %tobool = icmp ne ptr %1, null
  br i1 %tobool, label %land.lhs.true, label %if.end

land.lhs.true:                                    ; preds = %entry
  %2 = load ptr, ptr %ddc.addr, align 8
  %listeners = getelementptr inbounds %struct._DBusDisplayConsole, ptr %2, i32 0, i32 3
  %3 = load ptr, ptr %listeners, align 8
  %4 = load ptr, ptr %sender, align 8
  %call2 = call i32 @g_hash_table_contains(ptr noundef %3, ptr noundef %4)
  %tobool3 = icmp ne i32 %call2, 0
  br i1 %tobool3, label %if.then, label %if.end

if.then:                                          ; preds = %land.lhs.true
  %5 = load ptr, ptr %invocation.addr, align 8
  %call4 = call i32 @dbus_display_error_quark()
  %6 = load ptr, ptr %sender, align 8
  call void (ptr, i32, i32, ptr, ...) @g_dbus_method_invocation_return_error(ptr noundef %5, i32 noundef %call4, i32 noundef 1, ptr noundef @.str.26, ptr noundef %6)
  store i32 1, ptr %retval, align 4
  store i32 1, ptr %cleanup.dest.slot, align 4
  br label %cleanup

if.end:                                           ; preds = %land.lhs.true, %entry
  %7 = load ptr, ptr %fd_list.addr, align 8
  %8 = load ptr, ptr %arg_listener.addr, align 8
  %call5 = call i32 @g_variant_get_handle(ptr noundef %8)
  %call6 = call i32 @g_unix_fd_list_get(ptr noundef %7, i32 noundef %call5, ptr noundef %err)
  store i32 %call6, ptr %fd, align 4
  %9 = load ptr, ptr %err, align 8
  %tobool7 = icmp ne ptr %9, null
  br i1 %tobool7, label %if.then8, label %if.end10

if.then8:                                         ; preds = %if.end
  %10 = load ptr, ptr %invocation.addr, align 8
  %call9 = call i32 @dbus_display_error_quark()
  %11 = load ptr, ptr %err, align 8
  %message = getelementptr inbounds %struct._GError, ptr %11, i32 0, i32 2
  %12 = load ptr, ptr %message, align 8
  call void (ptr, i32, i32, ptr, ...) @g_dbus_method_invocation_return_error(ptr noundef %10, i32 noundef %call9, i32 noundef 0, ptr noundef @.str.27, ptr noundef %12)
  store i32 1, ptr %retval, align 4
  store i32 1, ptr %cleanup.dest.slot, align 4
  br label %cleanup

if.end10:                                         ; preds = %if.end
  %13 = load i32, ptr %fd, align 4
  %call11 = call ptr @g_socket_new_from_fd(i32 noundef %13, ptr noundef %err)
  store ptr %call11, ptr %socket, align 8
  %14 = load ptr, ptr %err, align 8
  %tobool12 = icmp ne ptr %14, null
  br i1 %tobool12, label %if.then13, label %if.end17

if.then13:                                        ; preds = %if.end10
  %15 = load ptr, ptr %invocation.addr, align 8
  %call14 = call i32 @dbus_display_error_quark()
  %16 = load ptr, ptr %err, align 8
  %message15 = getelementptr inbounds %struct._GError, ptr %16, i32 0, i32 2
  %17 = load ptr, ptr %message15, align 8
  call void (ptr, i32, i32, ptr, ...) @g_dbus_method_invocation_return_error(ptr noundef %15, i32 noundef %call14, i32 noundef 0, ptr noundef @.str.28, ptr noundef %17)
  %18 = load i32, ptr %fd, align 4
  %call16 = call i32 @close(i32 noundef %18)
  store i32 1, ptr %retval, align 4
  store i32 1, ptr %cleanup.dest.slot, align 4
  br label %cleanup

if.end17:                                         ; preds = %if.end10
  %19 = load ptr, ptr %socket, align 8
  %call18 = call ptr @g_socket_connection_factory_create_connection(ptr noundef %19)
  store ptr %call18, ptr %socket_conn, align 8
  %20 = load ptr, ptr %ddc.addr, align 8
  %iface = getelementptr inbounds %struct._DBusDisplayConsole, ptr %20, i32 0, i32 4
  %21 = load ptr, ptr %iface, align 8
  %22 = load ptr, ptr %invocation.addr, align 8
  call void @qemu_dbus_display1_console_complete_register_listener(ptr noundef %21, ptr noundef %22, ptr noundef null)
  %23 = load ptr, ptr %socket_conn, align 8
  %call19 = call i64 @g_io_stream_get_type() #7
  %call20 = call ptr @g_type_check_instance_cast(ptr noundef %23, i64 noundef %call19)
  %24 = load ptr, ptr %guid, align 8
  %call21 = call ptr @g_dbus_connection_new_sync(ptr noundef %call20, ptr noundef %24, i32 noundef 2, ptr noundef null, ptr noundef null, ptr noundef %err)
  store ptr %call21, ptr %listener_conn, align 8
  %25 = load ptr, ptr %err, align 8
  %tobool22 = icmp ne ptr %25, null
  br i1 %tobool22, label %if.then23, label %if.end25

if.then23:                                        ; preds = %if.end17
  %26 = load ptr, ptr %err, align 8
  %message24 = getelementptr inbounds %struct._GError, ptr %26, i32 0, i32 2
  %27 = load ptr, ptr %message24, align 8
  call void (ptr, ...) @error_report(ptr noundef @.str.29, ptr noundef %27)
  store i32 1, ptr %retval, align 4
  store i32 1, ptr %cleanup.dest.slot, align 4
  br label %cleanup

if.end25:                                         ; preds = %if.end17
  %28 = load ptr, ptr %sender, align 8
  %29 = load ptr, ptr %listener_conn, align 8
  %30 = load ptr, ptr %ddc.addr, align 8
  %call26 = call ptr @dbus_display_listener_new(ptr noundef %28, ptr noundef %29, ptr noundef %30)
  store ptr %call26, ptr %listener, align 8
  %31 = load ptr, ptr %listener, align 8
  %tobool27 = icmp ne ptr %31, null
  br i1 %tobool27, label %if.end29, label %if.then28

if.then28:                                        ; preds = %if.end25
  store i32 1, ptr %retval, align 4
  store i32 1, ptr %cleanup.dest.slot, align 4
  br label %cleanup

if.end29:                                         ; preds = %if.end25
  %32 = load ptr, ptr %ddc.addr, align 8
  %listeners30 = getelementptr inbounds %struct._DBusDisplayConsole, ptr %32, i32 0, i32 3
  %33 = load ptr, ptr %listeners30, align 8
  %34 = load ptr, ptr %listener, align 8
  %call31 = call ptr @dbus_display_listener_get_bus_name(ptr noundef %34)
  %35 = load ptr, ptr %listener, align 8
  %call32 = call i32 @g_hash_table_insert(ptr noundef %33, ptr noundef %call31, ptr noundef %35)
  %36 = load ptr, ptr %listener_conn, align 8
  %37 = load ptr, ptr %listener, align 8
  %call33 = call ptr (ptr, ptr, ...) @g_object_connect(ptr noundef %36, ptr noundef @.str.30, ptr noundef @listener_vanished_cb, ptr noundef %37, ptr noundef null)
  %38 = load ptr, ptr %sender, align 8
  call void @trace_dbus_registered_listener(ptr noundef %38)
  store i32 1, ptr %retval, align 4
  store i32 1, ptr %cleanup.dest.slot, align 4
  br label %cleanup

cleanup:                                          ; preds = %if.end29, %if.then28, %if.then23, %if.then13, %if.then8, %if.then
  call void @g_autoptr_cleanup_generic_gfree(ptr noundef %guid)
  call void @glib_autoptr_cleanup_GSocketConnection(ptr noundef %socket_conn)
  call void @glib_autoptr_cleanup_GSocket(ptr noundef %socket)
  call void @glib_autoptr_cleanup_GError(ptr noundef %err)
  %39 = load i32, ptr %retval, align 4
  ret i32 %39
}