; Function Attrs: nounwind sspstrong uwtable
define internal noundef i32 @dbus_console_register_listener(ptr noundef %ddc, ptr noundef %invocation, ptr noundef %fd_list, ptr noundef %arg_listener) #0 {
entry:
  %_now.i.i = alloca %struct.timeval, align 8
  %err = alloca ptr, align 8
  %call = tail call ptr @g_dbus_method_invocation_get_sender(ptr noundef %invocation) #9
  store ptr null, ptr %err, align 8
  %call1 = tail call ptr @g_dbus_generate_guid() #9
  %tobool.not = icmp eq ptr %call, null
  br i1 %tobool.not, label %if.end, label %land.lhs.true

land.lhs.true:                                    ; preds = %entry
  %listeners = getelementptr inbounds nuw i8, ptr %ddc, i64 88
  %0 = load ptr, ptr %listeners, align 8
  %call2 = tail call i32 @g_hash_table_contains(ptr noundef %0, ptr noundef nonnull %call) #9
  %tobool3.not = icmp eq i32 %call2, 0
  br i1 %tobool3.not, label %if.end, label %if.then

if.then:                                          ; preds = %land.lhs.true
  %call4 = tail call i32 @dbus_display_error_quark() #9
  tail call void (ptr, i32, i32, ptr, ...) @g_dbus_method_invocation_return_error(ptr noundef %invocation, i32 noundef %call4, i32 noundef 1, ptr noundef nonnull @.str.26, ptr noundef nonnull %call) #9
  br label %cleanup.thread

if.end:                                           ; preds = %land.lhs.true, %entry
  %call5 = tail call i32 @g_variant_get_handle(ptr noundef %arg_listener) #9
  %call6 = call i32 @g_unix_fd_list_get(ptr noundef %fd_list, i32 noundef %call5, ptr noundef nonnull %err) #9
  %1 = load ptr, ptr %err, align 8
  %tobool7.not = icmp eq ptr %1, null
  br i1 %tobool7.not, label %if.end10, label %if.then8

if.then8:                                         ; preds = %if.end
  %call9 = call i32 @dbus_display_error_quark() #9
  %2 = load ptr, ptr %err, align 8
  %message = getelementptr inbounds nuw i8, ptr %2, i64 8
  %3 = load ptr, ptr %message, align 8
  call void (ptr, i32, i32, ptr, ...) @g_dbus_method_invocation_return_error(ptr noundef %invocation, i32 noundef %call9, i32 noundef 0, ptr noundef nonnull @.str.27, ptr noundef %3) #9
  br label %cleanup.thread

if.end10:                                         ; preds = %if.end
  %call11 = call ptr @g_socket_new_from_fd(i32 noundef %call6, ptr noundef nonnull %err) #9
  %4 = load ptr, ptr %err, align 8
  %tobool12.not = icmp eq ptr %4, null
  br i1 %tobool12.not, label %if.end17, label %if.then13

if.then13:                                        ; preds = %if.end10
  %call14 = call i32 @dbus_display_error_quark() #9
  %5 = load ptr, ptr %err, align 8
  %message15 = getelementptr inbounds nuw i8, ptr %5, i64 8
  %6 = load ptr, ptr %message15, align 8
  call void (ptr, i32, i32, ptr, ...) @g_dbus_method_invocation_return_error(ptr noundef %invocation, i32 noundef %call14, i32 noundef 0, ptr noundef nonnull @.str.28, ptr noundef %6) #9
  %call16 = call i32 @close(i32 noundef %call6) #9
  br label %cleanup.thread

if.end17:                                         ; preds = %if.end10
  %call18 = call ptr @g_socket_connection_factory_create_connection(ptr noundef %call11) #9
  %iface = getelementptr inbounds nuw i8, ptr %ddc, i64 96
  %7 = load ptr, ptr %iface, align 8
  call void @qemu_dbus_display1_console_complete_register_listener(ptr noundef %7, ptr noundef %invocation, ptr noundef null) #9
  %call19 = tail call i64 @g_io_stream_get_type() #10
  %call20 = call ptr @g_type_check_instance_cast(ptr noundef %call18, i64 noundef %call19) #9
  %call21 = call ptr @g_dbus_connection_new_sync(ptr noundef %call20, ptr noundef %call1, i32 noundef 2, ptr noundef null, ptr noundef null, ptr noundef nonnull %err) #9
  %8 = load ptr, ptr %err, align 8
  %tobool22.not = icmp eq ptr %8, null
  br i1 %tobool22.not, label %if.end25, label %if.then23

if.then23:                                        ; preds = %if.end17
  %message24 = getelementptr inbounds nuw i8, ptr %8, i64 8
  %9 = load ptr, ptr %message24, align 8
  call void (ptr, ...) @error_report(ptr noundef nonnull @.str.29, ptr noundef %9) #9
  br label %cleanup

if.end25:                                         ; preds = %if.end17
  %call26 = call ptr @dbus_display_listener_new(ptr noundef %call, ptr noundef %call21, ptr noundef nonnull %ddc) #9
  %tobool27.not = icmp eq ptr %call26, null
  br i1 %tobool27.not, label %cleanup, label %if.end29

if.end29:                                         ; preds = %if.end25
  %listeners30 = getelementptr inbounds nuw i8, ptr %ddc, i64 88
  %10 = load ptr, ptr %listeners30, align 8
  %call31 = call ptr @dbus_display_listener_get_bus_name(ptr noundef nonnull %call26) #9
  %call32 = call i32 @g_hash_table_insert(ptr noundef %10, ptr noundef %call31, ptr noundef nonnull %call26) #9
  %call33 = call ptr (ptr, ptr, ...) @g_object_connect(ptr noundef %call21, ptr noundef nonnull @.str.30, ptr noundef nonnull @listener_vanished_cb, ptr noundef nonnull %call26, ptr noundef null) #9
  call void @llvm.lifetime.start.p0(i64 16, ptr nonnull %_now.i.i)
  %11 = load i32, ptr @trace_events_enabled_count, align 4
  %tobool.i.i = icmp ne i32 %11, 0
  %12 = load i16, ptr @_TRACE_DBUS_REGISTERED_LISTENER_DSTATE, align 2
  %tobool4.i.i = icmp ne i16 %12, 0
  %or.cond.i.i = select i1 %tobool.i.i, i1 %tobool4.i.i, i1 false
  br i1 %or.cond.i.i, label %land.lhs.true5.i.i, label %trace_dbus_registered_listener.exit

land.lhs.true5.i.i:                               ; preds = %if.end29
  %13 = load i32, ptr @qemu_loglevel, align 4
  %and.i.i.i = and i32 %13, 32768
  %cmp.i.not.i.i = icmp eq i32 %and.i.i.i, 0
  br i1 %cmp.i.not.i.i, label %trace_dbus_registered_listener.exit, label %if.then.i.i

if.then.i.i:                                      ; preds = %land.lhs.true5.i.i
  %14 = load i8, ptr @message_with_timestamp, align 1
  %tobool7.i.i = trunc i8 %14 to i1
  br i1 %tobool7.i.i, label %if.then8.i.i, label %if.else.i.i

if.then8.i.i:                                     ; preds = %if.then.i.i
  %call9.i.i = call i32 @gettimeofday(ptr noundef nonnull %_now.i.i, ptr noundef null) #9
  %call10.i.i = call i32 @qemu_get_thread_id() #9
  %15 = load i64, ptr %_now.i.i, align 8
  %tv_usec.i.i = getelementptr inbounds nuw i8, ptr %_now.i.i, i64 8
  %16 = load i64, ptr %tv_usec.i.i, align 8
  call void (ptr, ...) @qemu_log(ptr noundef nonnull @.str.33, i32 noundef %call10.i.i, i64 noundef %15, i64 noundef %16, ptr noundef %call) #9
  br label %trace_dbus_registered_listener.exit

if.else.i.i:                                      ; preds = %if.then.i.i
  call void (ptr, ...) @qemu_log(ptr noundef nonnull @.str.34, ptr noundef %call) #9
  br label %trace_dbus_registered_listener.exit

trace_dbus_registered_listener.exit:              ; preds = %if.end29, %land.lhs.true5.i.i, %if.then8.i.i, %if.else.i.i
  call void @llvm.lifetime.end.p0(i64 16, ptr nonnull %_now.i.i)
  br label %cleanup

cleanup.thread:                                   ; preds = %if.then13, %if.then8, %if.then
  %socket.0.ph = phi ptr [ null, %if.then ], [ null, %if.then8 ], [ %call11, %if.then13 ]
  call void @g_free(ptr noundef %call1) #9
  br label %glib_autoptr_cleanup_GSocketConnection.exit

cleanup:                                          ; preds = %if.end25, %trace_dbus_registered_listener.exit, %if.then23
  call void @g_free(ptr noundef %call1) #9
  %tobool.not.i.i = icmp eq ptr %call18, null
  br i1 %tobool.not.i.i, label %glib_autoptr_cleanup_GSocketConnection.exit, label %if.then.i.i17

if.then.i.i17:                                    ; preds = %cleanup
  call void @g_object_unref(ptr noundef nonnull %call18) #9
  br label %glib_autoptr_cleanup_GSocketConnection.exit

glib_autoptr_cleanup_GSocketConnection.exit:      ; preds = %cleanup.thread, %cleanup, %if.then.i.i17
  %socket.025 = phi ptr [ %socket.0.ph, %cleanup.thread ], [ %call11, %cleanup ], [ %call11, %if.then.i.i17 ]
  %tobool.not.i.i18 = icmp eq ptr %socket.025, null
  br i1 %tobool.not.i.i18, label %glib_autoptr_cleanup_GSocket.exit, label %if.then.i.i19

if.then.i.i19:                                    ; preds = %glib_autoptr_cleanup_GSocketConnection.exit
  call void @g_object_unref(ptr noundef nonnull %socket.025) #9
  br label %glib_autoptr_cleanup_GSocket.exit

glib_autoptr_cleanup_GSocket.exit:                ; preds = %glib_autoptr_cleanup_GSocketConnection.exit, %if.then.i.i19
  %err.val = load ptr, ptr %err, align 8
  %tobool.not.i.i20 = icmp eq ptr %err.val, null
  br i1 %tobool.not.i.i20, label %glib_autoptr_cleanup_GError.exit, label %if.then.i.i21

if.then.i.i21:                                    ; preds = %glib_autoptr_cleanup_GSocket.exit
  call void @g_error_free(ptr noundef nonnull %err.val) #9
  br label %glib_autoptr_cleanup_GError.exit

glib_autoptr_cleanup_GError.exit:                 ; preds = %glib_autoptr_cleanup_GSocket.exit, %if.then.i.i21
  ret i32 1
}